target datalayout = "e-m:e-p270:32:32-p271:32:32-p272:64:64-i64:64-i128:128-f80:128-n8:16:32:64-S128"
target triple = "x86_64-pc-linux-gnu"

%struct.b2Vec2 = type { float, float }
%struct.b2Softness = type { float, float, float }
%struct.b2StepContext = type { float, float, float, float, i32, %struct.b2Softness, %struct.b2Softness, %struct.b2Softness, float, float, ptr, ptr, ptr, ptr, ptr, i32, ptr, %struct.b2AtomicInt, ptr, ptr, ptr, i32, i32, ptr, i32, i8, [64 x i8], %struct.b2AtomicU32, [64 x i8] }
%struct.b2AtomicInt = type { i32 }
%struct.b2AtomicU32 = type { i32 }
%struct.b2ContactSim = type { i32, i32, i32, i32, i32, float, float, float, float, %struct.b2Manifold, float, float, float, float, i32, %struct.b2SimplexCache }
%struct.b2Manifold = type { %struct.b2Vec2, float, [2 x %struct.b2ManifoldPoint], i32 }
%struct.b2ManifoldPoint = type { %struct.b2Vec2, %struct.b2Vec2, %struct.b2Vec2, float, float, float, float, float, i16, i8 }
%struct.b2SimplexCache = type { i16, [3 x i8], [3 x i8] }
%struct.b2ContactConstraintSIMD = type { [4 x i32], [4 x i32], <4 x float>, <4 x float>, <4 x float>, <4 x float>, %struct.b2Vec2W, <4 x float>, <4 x float>, <4 x float>, <4 x float>, <4 x float>, <4 x float>, <4 x float>, <4 x float>, %struct.b2Vec2W, %struct.b2Vec2W, <4 x float>, <4 x float>, <4 x float>, <4 x float>, <4 x float>, <4 x float>, %struct.b2Vec2W, %struct.b2Vec2W, <4 x float>, <4 x float>, <4 x float>, <4 x float>, <4 x float>, <4 x float>, <4 x float>, <4 x float>, <4 x float> }
%struct.b2Vec2W = type { <4 x float>, <4 x float> }

; Function Attrs: nounwind uwtable
define hidden void @b2StoreImpulsesTask(i32 noundef %0, i32 noundef %1, ptr noundef %2) #6 {
  %4 = alloca i32, align 4
  %5 = alloca i32, align 4
  %6 = alloca ptr, align 8
  %7 = alloca ptr, align 8
  %8 = alloca ptr, align 8
  %9 = alloca %struct.b2Manifold, align 4
  %10 = alloca i32, align 4
  %11 = alloca i32, align 4
  %12 = alloca ptr, align 8
  %13 = alloca ptr, align 8
  %14 = alloca ptr, align 8
  %15 = alloca ptr, align 8
  %16 = alloca ptr, align 8
  %17 = alloca ptr, align 8
  %18 = alloca ptr, align 8
  %19 = alloca ptr, align 8
  %20 = alloca ptr, align 8
  %21 = alloca ptr, align 8
  %22 = alloca i32, align 4
  %23 = alloca i32, align 4
  %24 = alloca ptr, align 8
  store i32 %0, ptr %4, align 4, !tbaa !41
  store i32 %1, ptr %5, align 4, !tbaa !41
  store ptr %2, ptr %6, align 8, !tbaa !3
  call void @llvm.lifetime.start.p0(i64 8, ptr %7) #11
  %25 = load ptr, ptr %6, align 8, !tbaa !3
  %26 = getelementptr inbounds nuw %struct.b2StepContext, ptr %25, i32 0, i32 19
  %27 = load ptr, ptr %26, align 8, !tbaa !181
  store ptr %27, ptr %7, align 8, !tbaa !182
  call void @llvm.lifetime.start.p0(i64 8, ptr %8) #11
  %28 = load ptr, ptr %6, align 8, !tbaa !3
  %29 = getelementptr inbounds nuw %struct.b2StepContext, ptr %28, i32 0, i32 20
  %30 = load ptr, ptr %29, align 8, !tbaa !183
  store ptr %30, ptr %8, align 8, !tbaa !184
  call void @llvm.lifetime.start.p0(i64 112, ptr %9) #11
  call void @llvm.memset.p0.i64(ptr align 4 %9, i8 0, i64 112, i1 false)
  call void @llvm.lifetime.start.p0(i64 4, ptr %10) #11
  %31 = load i32, ptr %4, align 4, !tbaa !41
  store i32 %31, ptr %10, align 4, !tbaa !41
  br label %32

32:                                               ; preds = %170, %3
  %33 = load i32, ptr %10, align 4, !tbaa !41
  %34 = load i32, ptr %5, align 4, !tbaa !41
  %35 = icmp slt i32 %33, %34
  br i1 %35, label %37, label %36

36:                                               ; preds = %32
  store i32 2, ptr %11, align 4
  call void @llvm.lifetime.end.p0(i64 4, ptr %10) #11
  br label %173

37:                                               ; preds = %32
  call void @llvm.lifetime.start.p0(i64 8, ptr %12) #11
  %38 = load ptr, ptr %8, align 8, !tbaa !184
  %39 = load i32, ptr %10, align 4, !tbaa !41
  %40 = sext i32 %39 to i64
  %41 = getelementptr inbounds %struct.b2ContactConstraintSIMD, ptr %38, i64 %40
  store ptr %41, ptr %12, align 8, !tbaa !184
  call void @llvm.lifetime.start.p0(i64 8, ptr %13) #11
  %42 = load ptr, ptr %12, align 8, !tbaa !184
  %43 = getelementptr inbounds nuw %struct.b2ContactConstraintSIMD, ptr %42, i32 0, i32 11
  store ptr %43, ptr %13, align 8, !tbaa !194
  call void @llvm.lifetime.start.p0(i64 8, ptr %14) #11
  %44 = load ptr, ptr %12, align 8, !tbaa !184
  %45 = getelementptr inbounds nuw %struct.b2ContactConstraintSIMD, ptr %44, i32 0, i32 20
  store ptr %45, ptr %14, align 8, !tbaa !194
  call void @llvm.lifetime.start.p0(i64 8, ptr %15) #11
  %46 = load ptr, ptr %12, align 8, !tbaa !184
  %47 = getelementptr inbounds nuw %struct.b2ContactConstraintSIMD, ptr %46, i32 0, i32 26
  store ptr %47, ptr %15, align 8, !tbaa !194
  call void @llvm.lifetime.start.p0(i64 8, ptr %16) #11
  %48 = load ptr, ptr %12, align 8, !tbaa !184
  %49 = getelementptr inbounds nuw %struct.b2ContactConstraintSIMD, ptr %48, i32 0, i32 22
  store ptr %49, ptr %16, align 8, !tbaa !194
  call void @llvm.lifetime.start.p0(i64 8, ptr %17) #11
  %50 = load ptr, ptr %12, align 8, !tbaa !184
  %51 = getelementptr inbounds nuw %struct.b2ContactConstraintSIMD, ptr %50, i32 0, i32 28
  store ptr %51, ptr %17, align 8, !tbaa !194
  call void @llvm.lifetime.start.p0(i64 8, ptr %18) #11
  %52 = load ptr, ptr %12, align 8, !tbaa !184
  %53 = getelementptr inbounds nuw %struct.b2ContactConstraintSIMD, ptr %52, i32 0, i32 21
  store ptr %53, ptr %18, align 8, !tbaa !194
  call void @llvm.lifetime.start.p0(i64 8, ptr %19) #11
  %54 = load ptr, ptr %12, align 8, !tbaa !184
  %55 = getelementptr inbounds nuw %struct.b2ContactConstraintSIMD, ptr %54, i32 0, i32 27
  store ptr %55, ptr %19, align 8, !tbaa !194
  call void @llvm.lifetime.start.p0(i64 8, ptr %20) #11
  %56 = load ptr, ptr %12, align 8, !tbaa !184
  %57 = getelementptr inbounds nuw %struct.b2ContactConstraintSIMD, ptr %56, i32 0, i32 32
  store ptr %57, ptr %20, align 8, !tbaa !194
  call void @llvm.lifetime.start.p0(i64 8, ptr %21) #11
  %58 = load ptr, ptr %12, align 8, !tbaa !184
  %59 = getelementptr inbounds nuw %struct.b2ContactConstraintSIMD, ptr %58, i32 0, i32 33
  store ptr %59, ptr %21, align 8, !tbaa !194
  call void @llvm.lifetime.start.p0(i64 4, ptr %22) #11
  %60 = load i32, ptr %10, align 4, !tbaa !41
  %61 = mul nsw i32 4, %60
  store i32 %61, ptr %22, align 4, !tbaa !41
  call void @llvm.lifetime.start.p0(i64 4, ptr %23) #11
  store i32 0, ptr %23, align 4, !tbaa !41
  br label %62

62:                                               ; preds = %166, %37
  %63 = load i32, ptr %23, align 4, !tbaa !41
  %64 = icmp slt i32 %63, 4
  br i1 %64, label %66, label %65

65:                                               ; preds = %62
  store i32 5, ptr %11, align 4
  call void @llvm.lifetime.end.p0(i64 4, ptr %23) #11
  br label %169

66:                                               ; preds = %62
  call void @llvm.lifetime.start.p0(i64 8, ptr %24) #11
  %67 = load ptr, ptr %7, align 8, !tbaa !182
  %68 = load i32, ptr %22, align 4, !tbaa !41
  %69 = load i32, ptr %23, align 4, !tbaa !41
  %70 = add nsw i32 %68, %69
  %71 = sext i32 %70 to i64
  %72 = getelementptr inbounds ptr, ptr %67, i64 %71
  %73 = load ptr, ptr %72, align 8, !tbaa !43
  %74 = icmp eq ptr %73, null
  br i1 %74, label %75, label %76

75:                                               ; preds = %66
  br label %85

76:                                               ; preds = %66
  %77 = load ptr, ptr %7, align 8, !tbaa !182
  %78 = load i32, ptr %22, align 4, !tbaa !41
  %79 = load i32, ptr %23, align 4, !tbaa !41
  %80 = add nsw i32 %78, %79
  %81 = sext i32 %80 to i64
  %82 = getelementptr inbounds ptr, ptr %77, i64 %81
  %83 = load ptr, ptr %82, align 8, !tbaa !43
  %84 = getelementptr inbounds nuw %struct.b2ContactSim, ptr %83, i32 0, i32 9
  br label %85

85:                                               ; preds = %76, %75
  %86 = phi ptr [ %9, %75 ], [ %84, %76 ]
  store ptr %86, ptr %24, align 8, !tbaa !96
  %87 = load ptr, ptr %13, align 8, !tbaa !194
  %88 = load i32, ptr %23, align 4, !tbaa !41
  %89 = sext i32 %88 to i64
  %90 = getelementptr inbounds float, ptr %87, i64 %89
  %91 = load float, ptr %90, align 4, !tbaa !47
  %92 = load ptr, ptr %24, align 8, !tbaa !96
  %93 = getelementptr inbounds nuw %struct.b2Manifold, ptr %92, i32 0, i32 1
  store float %91, ptr %93, align 4, !tbaa !114
  %94 = load ptr, ptr %14, align 8, !tbaa !194
  %95 = load i32, ptr %23, align 4, !tbaa !41
  %96 = sext i32 %95 to i64
  %97 = getelementptr inbounds float, ptr %94, i64 %96
  %98 = load float, ptr %97, align 4, !tbaa !47
  %99 = load ptr, ptr %24, align 8, !tbaa !96
  %100 = getelementptr inbounds nuw %struct.b2Manifold, ptr %99, i32 0, i32 2
  %101 = getelementptr inbounds [2 x %struct.b2ManifoldPoint], ptr %100, i64 0, i64 0
  %102 = getelementptr inbounds nuw %struct.b2ManifoldPoint, ptr %101, i32 0, i32 4
  store float %98, ptr %102, align 4, !tbaa !135
  %103 = load ptr, ptr %16, align 8, !tbaa !194
  %104 = load i32, ptr %23, align 4, !tbaa !41
  %105 = sext i32 %104 to i64
  %106 = getelementptr inbounds float, ptr %103, i64 %105
  %107 = load float, ptr %106, align 4, !tbaa !47
  %108 = load ptr, ptr %24, align 8, !tbaa !96
  %109 = getelementptr inbounds nuw %struct.b2Manifold, ptr %108, i32 0, i32 2
  %110 = getelementptr inbounds [2 x %struct.b2ManifoldPoint], ptr %109, i64 0, i64 0
  %111 = getelementptr inbounds nuw %struct.b2ManifoldPoint, ptr %110, i32 0, i32 5
  store float %107, ptr %111, align 4, !tbaa !139
  %112 = load ptr, ptr %18, align 8, !tbaa !194
  %113 = load i32, ptr %23, align 4, !tbaa !41
  %114 = sext i32 %113 to i64
  %115 = getelementptr inbounds float, ptr %112, i64 %114
  %116 = load float, ptr %115, align 4, !tbaa !47
  %117 = load ptr, ptr %24, align 8, !tbaa !96
  %118 = getelementptr inbounds nuw %struct.b2Manifold, ptr %117, i32 0, i32 2
  %119 = getelementptr inbounds [2 x %struct.b2ManifoldPoint], ptr %118, i64 0, i64 0
  %120 = getelementptr inbounds nuw %struct.b2ManifoldPoint, ptr %119, i32 0, i32 6
  store float %116, ptr %120, align 4, !tbaa !177
  %121 = load ptr, ptr %20, align 8, !tbaa !194
  %122 = load i32, ptr %23, align 4, !tbaa !41
  %123 = sext i32 %122 to i64
  %124 = getelementptr inbounds float, ptr %121, i64 %123
  %125 = load float, ptr %124, align 4, !tbaa !47
  %126 = load ptr, ptr %24, align 8, !tbaa !96
  %127 = getelementptr inbounds nuw %struct.b2Manifold, ptr %126, i32 0, i32 2
  %128 = getelementptr inbounds [2 x %struct.b2ManifoldPoint], ptr %127, i64 0, i64 0
  %129 = getelementptr inbounds nuw %struct.b2ManifoldPoint, ptr %128, i32 0, i32 7
  store float %125, ptr %129, align 4, !tbaa !178
  %130 = load ptr, ptr %15, align 8, !tbaa !194
  %131 = load i32, ptr %23, align 4, !tbaa !41
  %132 = sext i32 %131 to i64
  %133 = getelementptr inbounds float, ptr %130, i64 %132
  %134 = load float, ptr %133, align 4, !tbaa !47
  %135 = load ptr, ptr %24, align 8, !tbaa !96
  %136 = getelementptr inbounds nuw %struct.b2Manifold, ptr %135, i32 0, i32 2
  %137 = getelementptr inbounds [2 x %struct.b2ManifoldPoint], ptr %136, i64 0, i64 1
  %138 = getelementptr inbounds nuw %struct.b2ManifoldPoint, ptr %137, i32 0, i32 4
  store float %134, ptr %138, align 4, !tbaa !135
  %139 = load ptr, ptr %17, align 8, !tbaa !194
  %140 = load i32, ptr %23, align 4, !tbaa !41
  %141 = sext i32 %140 to i64
  %142 = getelementptr inbounds float, ptr %139, i64 %141
  %143 = load float, ptr %142, align 4, !tbaa !47
  %144 = load ptr, ptr %24, align 8, !tbaa !96
  %145 = getelementptr inbounds nuw %struct.b2Manifold, ptr %144, i32 0, i32 2
  %146 = getelementptr inbounds [2 x %struct.b2ManifoldPoint], ptr %145, i64 0, i64 1
  %147 = getelementptr inbounds nuw %struct.b2ManifoldPoint, ptr %146, i32 0, i32 5
  store float %143, ptr %147, align 4, !tbaa !139
  %148 = load ptr, ptr %19, align 8, !tbaa !194
  %149 = load i32, ptr %23, align 4, !tbaa !41
  %150 = sext i32 %149 to i64
  %151 = getelementptr inbounds float, ptr %148, i64 %150
  %152 = load float, ptr %151, align 4, !tbaa !47
  %153 = load ptr, ptr %24, align 8, !tbaa !96
  %154 = getelementptr inbounds nuw %struct.b2Manifold, ptr %153, i32 0, i32 2
  %155 = getelementptr inbounds [2 x %struct.b2ManifoldPoint], ptr %154, i64 0, i64 1
  %156 = getelementptr inbounds nuw %struct.b2ManifoldPoint, ptr %155, i32 0, i32 6
  store float %152, ptr %156, align 4, !tbaa !177
  %157 = load ptr, ptr %21, align 8, !tbaa !194
  %158 = load i32, ptr %23, align 4, !tbaa !41
  %159 = sext i32 %158 to i64
  %160 = getelementptr inbounds float, ptr %157, i64 %159
  %161 = load float, ptr %160, align 4, !tbaa !47
  %162 = load ptr, ptr %24, align 8, !tbaa !96
  %163 = getelementptr inbounds nuw %struct.b2Manifold, ptr %162, i32 0, i32 2
  %164 = getelementptr inbounds [2 x %struct.b2ManifoldPoint], ptr %163, i64 0, i64 1
  %165 = getelementptr inbounds nuw %struct.b2ManifoldPoint, ptr %164, i32 0, i32 7
  store float %161, ptr %165, align 4, !tbaa !178
  call void @llvm.lifetime.end.p0(i64 8, ptr %24) #11
  br label %166

166:                                              ; preds = %85
  %167 = load i32, ptr %23, align 4, !tbaa !41
  %168 = add nsw i32 %167, 1
  store i32 %168, ptr %23, align 4, !tbaa !41
  br label %62, !llvm.loop !196

169:                                              ; preds = %65
  call void @llvm.lifetime.end.p0(i64 4, ptr %22) #11
  call void @llvm.lifetime.end.p0(i64 8, ptr %21) #11
  call void @llvm.lifetime.end.p0(i64 8, ptr %20) #11
  call void @llvm.lifetime.end.p0(i64 8, ptr %19) #11
  call void @llvm.lifetime.end.p0(i64 8, ptr %18) #11
  call void @llvm.lifetime.end.p0(i64 8, ptr %17) #11
  call void @llvm.lifetime.end.p0(i64 8, ptr %16) #11
  call void @llvm.lifetime.end.p0(i64 8, ptr %15) #11
  call void @llvm.lifetime.end.p0(i64 8, ptr %14) #11
  call void @llvm.lifetime.end.p0(i64 8, ptr %13) #11
  call void @llvm.lifetime.end.p0(i64 8, ptr %12) #11
  br label %170

170:                                              ; preds = %169
  %171 = load i32, ptr %10, align 4, !tbaa !41
  %172 = add nsw i32 %171, 1
  store i32 %172, ptr %10, align 4, !tbaa !41
  br label %32, !llvm.loop !197

173:                                              ; preds = %36
  call void @llvm.lifetime.end.p0(i64 112, ptr %9) #11
  call void @llvm.lifetime.end.p0(i64 8, ptr %8) #11
  call void @llvm.lifetime.end.p0(i64 8, ptr %7) #11
  ret void
}