; Function Attrs: nofree norecurse nosync nounwind memory(readwrite, inaccessiblemem: none) uwtable
define hidden void @b2StoreImpulsesTask(i32 noundef %0, i32 noundef %1, ptr noundef readonly captures(none) %2) local_unnamed_addr #3 {
  %4 = getelementptr inbounds nuw i8, ptr %2, i64 136
  %5 = load ptr, ptr %4, align 8, !tbaa !153
  %6 = getelementptr inbounds nuw i8, ptr %2, i64 144
  %7 = load ptr, ptr %6, align 8, !tbaa !154
  %8 = icmp slt i32 %0, %1
  br i1 %8, label %.lr.ph.preheader, label %._crit_edge

.lr.ph.preheader:                                 ; preds = %3
  %9 = sext i32 %0 to i64
  %wide.trip.count = sext i32 %1 to i64
  br label %.lr.ph

._crit_edge:                                      ; preds = %20, %3
  ret void

.lr.ph:                                           ; preds = %.lr.ph.preheader, %20
  %indvars.iv116 = phi i64 [ %9, %.lr.ph.preheader ], [ %indvars.iv.next117, %20 ]
  %10 = getelementptr inbounds %struct.b2ContactConstraintSIMD, ptr %7, i64 %indvars.iv116
  %11 = getelementptr inbounds nuw i8, ptr %10, i64 192
  %12 = getelementptr inbounds nuw i8, ptr %10, i64 368
  %13 = getelementptr inbounds nuw i8, ptr %10, i64 496
  %14 = getelementptr inbounds nuw i8, ptr %10, i64 400
  %15 = getelementptr inbounds nuw i8, ptr %10, i64 528
  %16 = getelementptr inbounds nuw i8, ptr %10, i64 384
  %17 = getelementptr inbounds nuw i8, ptr %10, i64 512
  %18 = getelementptr inbounds nuw i8, ptr %10, i64 592
  %19 = getelementptr inbounds nuw i8, ptr %10, i64 608
  %.idx = shl i64 %indvars.iv116, 5
  %invariant.gep = getelementptr i8, ptr %5, i64 %.idx
  br label %21

20:                                               ; preds = %.cont
  %indvars.iv.next117 = add nsw i64 %indvars.iv116, 1
  %exitcond119.not = icmp eq i64 %indvars.iv.next117, %wide.trip.count
  br i1 %exitcond119.not, label %._crit_edge, label %.lr.ph, !llvm.loop !256

21:                                               ; preds = %.lr.ph, %.cont
  %indvars.iv = phi i64 [ 0, %.lr.ph ], [ %indvars.iv.next, %.cont ]
  %gep = getelementptr ptr, ptr %invariant.gep, i64 %indvars.iv
  %22 = load ptr, ptr %gep, align 8, !tbaa !156
  %23 = icmp eq ptr %22, null
  br i1 %23, label %.cont, label %.else

.else:                                            ; preds = %21
  %.sroa.gep77 = getelementptr inbounds nuw i8, ptr %22, i64 44
  %24 = getelementptr inbounds nuw float, ptr %11, i64 %indvars.iv
  %25 = load float, ptr %24, align 4, !tbaa !36
  store float %25, ptr %.sroa.gep77, align 4, !tbaa !100
  %26 = getelementptr inbounds nuw float, ptr %12, i64 %indvars.iv
  %27 = load float, ptr %26, align 4, !tbaa !36
  %.sroa.gep74 = getelementptr inbounds nuw i8, ptr %22, i64 76
  store float %27, ptr %.sroa.gep74, align 4, !tbaa !119
  %28 = getelementptr inbounds nuw float, ptr %14, i64 %indvars.iv
  %29 = load float, ptr %28, align 4, !tbaa !36
  %.sroa.gep71 = getelementptr inbounds nuw i8, ptr %22, i64 80
  store float %29, ptr %.sroa.gep71, align 4, !tbaa !123
  %30 = getelementptr inbounds nuw float, ptr %16, i64 %indvars.iv
  %31 = load float, ptr %30, align 4, !tbaa !36
  %.sroa.gep68 = getelementptr inbounds nuw i8, ptr %22, i64 84
  store float %31, ptr %.sroa.gep68, align 4, !tbaa !150
  %32 = getelementptr inbounds nuw float, ptr %18, i64 %indvars.iv
  %33 = load float, ptr %32, align 4, !tbaa !36
  %.sroa.gep65 = getelementptr inbounds nuw i8, ptr %22, i64 88
  store float %33, ptr %.sroa.gep65, align 4, !tbaa !151
  %34 = getelementptr inbounds nuw float, ptr %13, i64 %indvars.iv
  %35 = load float, ptr %34, align 4, !tbaa !36
  %.sroa.gep62 = getelementptr inbounds nuw i8, ptr %22, i64 124
  store float %35, ptr %.sroa.gep62, align 4, !tbaa !119
  %36 = getelementptr inbounds nuw float, ptr %15, i64 %indvars.iv
  %37 = load float, ptr %36, align 4, !tbaa !36
  %.sroa.gep59 = getelementptr inbounds nuw i8, ptr %22, i64 128
  store float %37, ptr %.sroa.gep59, align 4, !tbaa !123
  %38 = getelementptr inbounds nuw float, ptr %17, i64 %indvars.iv
  %39 = load float, ptr %38, align 4, !tbaa !36
  %.sroa.gep56 = getelementptr inbounds nuw i8, ptr %22, i64 132
  store float %39, ptr %.sroa.gep56, align 4, !tbaa !150
  %40 = getelementptr inbounds nuw float, ptr %19, i64 %indvars.iv
  %41 = load float, ptr %40, align 4, !tbaa !36
  %.sroa.gep54 = getelementptr inbounds nuw i8, ptr %22, i64 136
  store float %41, ptr %.sroa.gep54, align 4, !tbaa !151
  br label %.cont

.cont:                                            ; preds = %21, %.else
  %indvars.iv.next = add nuw nsw i64 %indvars.iv, 1
  %exitcond.not = icmp eq i64 %indvars.iv.next, 4
  br i1 %exitcond.not, label %20, label %21, !llvm.loop !257
}